target datalayout = "e-m:e-p270:32:32-p271:32:32-p272:64:64-i64:64-i128:128-f80:128-n8:16:32:64-S128"
target triple = "x86_64-pc-linux-gnu"

%struct.stat = type { i64, i64, i64, i32, i32, i32, i32, i64, i64, i64, i64, %struct.timespec, %struct.timespec, %struct.timespec, [3 x i64] }
%struct.timespec = type { i64, i64 }

@.str.156 = private unnamed_addr constant [20 x i8] c"can't parse File=%s\00", align 1
@.str.157 = private unnamed_addr constant [29 x i8] c"gres.conf file %s now exists\00", align 1
@.str.158 = private unnamed_addr constant [30 x i8] c"Waiting for gres.conf file %s\00", align 1
@.str.159 = private unnamed_addr constant [33 x i8] c"can't stat gres.conf file %s: %m\00", align 1

; Function Attrs: nounwind uwtable
define internal void @_my_stat(ptr noundef %0) #0 {
  %2 = alloca ptr, align 8
  %3 = alloca %struct.stat, align 8
  %4 = alloca i8, align 1
  %5 = alloca i32, align 4
  %6 = alloca i32, align 4
  store ptr %0, ptr %2, align 8
  call void @llvm.lifetime.start.p0(i64 144, ptr %3) #11
  call void @llvm.lifetime.start.p0(i64 1, ptr %4) #11
  store i8 0, ptr %4, align 1
  call void @llvm.lifetime.start.p0(i64 4, ptr %5) #11
  %7 = call zeroext i1 @running_in_slurmd_stepd()
  br i1 %7, label %9, label %8

8:                                                ; preds = %1
  store i32 1, ptr %6, align 4
  br label %55

9:                                                ; preds = %1
  store i32 0, ptr %5, align 4
  br label %10

10:                                               ; preds = %50, %9
  %11 = load i32, ptr %5, align 4
  %12 = icmp slt i32 %11, 20
  br i1 %12, label %13, label %53

13:                                               ; preds = %10
  %14 = load i32, ptr %5, align 4
  %15 = icmp ne i32 %14, 0
  br i1 %15, label %16, label %18

16:                                               ; preds = %13
  %17 = call i32 @sleep(i32 noundef 1)
  br label %18

18:                                               ; preds = %16, %13
  %19 = load ptr, ptr %2, align 8
  %20 = call i32 @stat(ptr noundef %19, ptr noundef %3) #11
  %21 = icmp eq i32 %20, 0
  br i1 %21, label %22, label %38

22:                                               ; preds = %18
  %23 = load i8, ptr %4, align 1, !range !8, !noundef !9
  %24 = trunc i8 %23 to i1
  br i1 %24, label %25, label %37

25:                                               ; preds = %22
  br label %26

26:                                               ; preds = %25
  br label %27

27:                                               ; preds = %26
  %28 = call i32 @get_log_level()
  %29 = icmp sge i32 %28, 3
  br i1 %29, label %30, label %32

30:                                               ; preds = %27
  %31 = load ptr, ptr %2, align 8
  call void (i32, ptr, ...) @log_var(i32 noundef 3, ptr noundef @.str.157, ptr noundef %31)
  br label %32

32:                                               ; preds = %30, %27
  br label %33

33:                                               ; preds = %32
  br label %34

34:                                               ; preds = %33
  br label %35

35:                                               ; preds = %34
  br label %36

36:                                               ; preds = %35
  br label %37

37:                                               ; preds = %36, %22
  store i32 1, ptr %6, align 4
  br label %55

38:                                               ; preds = %18
  %39 = call ptr @__errno_location() #12
  %40 = load i32, ptr %39, align 4
  %41 = icmp ne i32 %40, 2
  br i1 %41, label %42, label %43

42:                                               ; preds = %38
  br label %53

43:                                               ; preds = %38
  %44 = load i8, ptr %4, align 1, !range !8, !noundef !9
  %45 = trunc i8 %44 to i1
  br i1 %45, label %49, label %46

46:                                               ; preds = %43
  %47 = load ptr, ptr %2, align 8
  %48 = call i32 (ptr, ...) @error(ptr noundef @.str.158, ptr noundef %47)
  store i8 1, ptr %4, align 1
  br label %49

49:                                               ; preds = %46, %43
  br label %50

50:                                               ; preds = %49
  %51 = load i32, ptr %5, align 4
  %52 = add nsw i32 %51, 1
  store i32 %52, ptr %5, align 4
  br label %10, !llvm.loop !164

53:                                               ; preds = %42, %10
  %54 = load ptr, ptr %2, align 8
  call void (ptr, ...) @fatal(ptr noundef @.str.159, ptr noundef %54) #13
  unreachable

55:                                               ; preds = %37, %8
  call void @llvm.lifetime.end.p0(i64 4, ptr %5) #11
  call void @llvm.lifetime.end.p0(i64 1, ptr %4) #11
  call void @llvm.lifetime.end.p0(i64 144, ptr %3) #11
  ret void
}

; Function Attrs: nounwind uwtable
define internal i32 @_validate_file(ptr noundef %0, ptr noundef %1) #0 {
  %3 = alloca ptr, align 8
  %4 = alloca ptr, align 8
  %5 = alloca ptr, align 8
  %6 = alloca ptr, align 8
  %7 = alloca i32, align 4
  store ptr %0, ptr %3, align 8
  store ptr %1, ptr %4, align 8
  call void @llvm.lifetime.start.p0(i64 8, ptr %5) #11
  call void @llvm.lifetime.start.p0(i64 8, ptr %6) #11
  call void @llvm.lifetime.start.p0(i64 4, ptr %7) #11
  store i32 0, ptr %7, align 4
  %8 = load ptr, ptr %3, align 8
  %9 = call ptr @hostlist_create(ptr noundef %8)
  store ptr %9, ptr %6, align 8
  %10 = icmp ne ptr %9, null
  br i1 %10, label %13, label %11

11:                                               ; preds = %2
  %12 = load ptr, ptr %3, align 8
  call void (ptr, ...) @fatal(ptr noundef @.str.156, ptr noundef %12) #13
  unreachable

13:                                               ; preds = %2
  br label %14

14:                                               ; preds = %18, %13
  %15 = load ptr, ptr %6, align 8
  %16 = call ptr @hostlist_shift(ptr noundef %15)
  store ptr %16, ptr %5, align 8
  %17 = icmp ne ptr %16, null
  br i1 %17, label %18, label %23

18:                                               ; preds = %14
  %19 = load ptr, ptr %5, align 8
  call void @_my_stat(ptr noundef %19)
  %20 = load i32, ptr %7, align 4
  %21 = add nsw i32 %20, 1
  store i32 %21, ptr %7, align 4
  %22 = load ptr, ptr %5, align 8
  call void @free(ptr noundef %22) #11
  br label %14, !llvm.loop !163

23:                                               ; preds = %14
  %24 = load ptr, ptr %6, align 8
  call void @hostlist_destroy(ptr noundef %24)
  %25 = load i32, ptr %7, align 4
  call void @llvm.lifetime.end.p0(i64 4, ptr %7) #11
  call void @llvm.lifetime.end.p0(i64 8, ptr %6) #11
  call void @llvm.lifetime.end.p0(i64 8, ptr %5) #11
  ret i32 %25
}