; Function Attrs: nounwind uwtable
define internal fastcc i32 @_validate_file(ptr noundef %0) unnamed_addr #2 {
  %2 = alloca %struct.stat, align 8
  %3 = tail call ptr @hostlist_create(ptr noundef %0) #28
  %.not = icmp eq ptr %3, null
  br i1 %.not, label %5, label %.preheader

.preheader:                                       ; preds = %1
  %4 = tail call ptr @hostlist_shift(ptr noundef nonnull %3) #28
  %.not84 = icmp eq ptr %4, null
  br i1 %.not84, label %._crit_edge, label %.lr.ph

5:                                                ; preds = %1
  tail call void (ptr, ...) @fatal(ptr noundef nonnull @.str.156, ptr noundef %0) #30
  unreachable

.lr.ph:                                           ; preds = %.preheader, %_my_stat.exit
  %6 = phi ptr [ %28, %_my_stat.exit ], [ %4, %.preheader ]
  %.05 = phi i32 [ %27, %_my_stat.exit ], [ 0, %.preheader ]
  call void @llvm.lifetime.start.p0(i64 144, ptr nonnull %2) #28
  %7 = tail call zeroext i1 @running_in_slurmd_stepd() #28
  br i1 %7, label %.preheader.i, label %_my_stat.exit

.preheader.i:                                     ; preds = %.lr.ph, %24
  %.012.i = phi i32 [ %25, %24 ], [ 0, %.lr.ph ]
  %.0811.i = phi i1 [ true, %24 ], [ false, %.lr.ph ]
  %.not.i = icmp eq i32 %.012.i, 0
  br i1 %.not.i, label %10, label %8

8:                                                ; preds = %.preheader.i
  %9 = tail call i32 @sleep(i32 noundef 1) #28
  br label %10

10:                                               ; preds = %8, %.preheader.i
  %11 = call i32 @stat(ptr noundef nonnull %6, ptr noundef nonnull %2) #28
  %12 = icmp eq i32 %11, 0
  br i1 %12, label %13, label %18

13:                                               ; preds = %10
  br i1 %.0811.i, label %14, label %_my_stat.exit

14:                                               ; preds = %13
  %15 = tail call i32 @get_log_level() #28
  %16 = icmp sgt i32 %15, 2
  br i1 %16, label %17, label %_my_stat.exit

17:                                               ; preds = %14
  tail call void (i32, ptr, ...) @log_var(i32 noundef 3, ptr noundef nonnull @.str.157, ptr noundef nonnull %6) #28
  br label %_my_stat.exit

18:                                               ; preds = %10
  %19 = tail call ptr @__errno_location() #29
  %20 = load i32, ptr %19, align 4
  %.not9.i = icmp eq i32 %20, 2
  br i1 %.not9.i, label %21, label %26

21:                                               ; preds = %18
  br i1 %.0811.i, label %24, label %22

22:                                               ; preds = %21
  %23 = tail call i32 (ptr, ...) @error(ptr noundef nonnull @.str.158, ptr noundef nonnull %6) #28
  br label %24

24:                                               ; preds = %22, %21
  %25 = add nuw nsw i32 %.012.i, 1
  %exitcond.not.i = icmp eq i32 %25, 20
  br i1 %exitcond.not.i, label %26, label %.preheader.i, !llvm.loop !193

26:                                               ; preds = %24, %18
  tail call void (ptr, ...) @fatal(ptr noundef nonnull @.str.159, ptr noundef nonnull %6) #30
  unreachable

_my_stat.exit:                                    ; preds = %.lr.ph, %13, %14, %17
  call void @llvm.lifetime.end.p0(i64 144, ptr nonnull %2) #28
  %27 = add nuw nsw i32 %.05, 1
  tail call void @free(ptr noundef nonnull %6) #28
  %28 = tail call ptr @hostlist_shift(ptr noundef nonnull %3) #28
  %.not8 = icmp eq ptr %28, null
  br i1 %.not8, label %._crit_edge, label %.lr.ph, !llvm.loop !194

._crit_edge:                                      ; preds = %_my_stat.exit, %.preheader
  %.0.lcssa = phi i32 [ 0, %.preheader ], [ %27, %_my_stat.exit ]
  tail call void @hostlist_destroy(ptr noundef nonnull %3) #28
  ret i32 %.0.lcssa
}